target datalayout = "e-m:e-p270:32:32-p271:32:32-p272:64:64-i64:64-i128:128-f80:128-n8:16:32:64-S128"
target triple = "x86_64-pc-linux-gnu"

%struct.atomic_p_t = type { ptr }
%struct.arena_config_s = type { ptr, i8 }

@duckdb_je_arenas = external global [0 x %struct.atomic_p_t], align 8
@duckdb_je_arena_config_default = external constant %struct.arena_config_s, align 8

; Function Attrs: alwaysinline nounwind uwtable
define internal i32 @atomic_enum_to_builtin(i32 noundef %0) #2 {
  %2 = alloca i32, align 4
  %3 = alloca i32, align 4
  store i32 %0, ptr %3, align 4, !tbaa !19
  %4 = load i32, ptr %3, align 4, !tbaa !19
  switch i32 %4, label %10 [
    i32 0, label %5
    i32 1, label %6
    i32 2, label %7
    i32 3, label %8
    i32 4, label %9
  ]

5:                                                ; preds = %1
  store i32 0, ptr %2, align 4
  br label %12

6:                                                ; preds = %1
  store i32 2, ptr %2, align 4
  br label %12

7:                                                ; preds = %1
  store i32 3, ptr %2, align 4
  br label %12

8:                                                ; preds = %1
  store i32 4, ptr %2, align 4
  br label %12

9:                                                ; preds = %1
  store i32 5, ptr %2, align 4
  br label %12

10:                                               ; preds = %1
  br label %11

11:                                               ; preds = %10
  unreachable

12:                                               ; preds = %5, %6, %7, %8, %9
  %13 = load i32, ptr %2, align 4
  ret i32 %13
}

; Function Attrs: alwaysinline nounwind uwtable
define internal ptr @atomic_load_p(ptr noundef %0, i32 noundef %1) #2 {
  %3 = alloca ptr, align 8
  %4 = alloca i32, align 4
  %5 = alloca ptr, align 8
  store ptr %0, ptr %3, align 8, !tbaa !10
  store i32 %1, ptr %4, align 4, !tbaa !19
  call void @llvm.lifetime.start.p0(i64 8, ptr %5) #13
  %6 = load ptr, ptr %3, align 8, !tbaa !10
  %7 = getelementptr inbounds nuw %struct.atomic_p_t, ptr %6, i32 0, i32 0
  %8 = load i32, ptr %4, align 4, !tbaa !19
  %9 = call i32 @atomic_enum_to_builtin(i32 noundef %8)
  switch i32 %9, label %10 [
    i32 1, label %12
    i32 2, label %12
    i32 5, label %14
  ]

10:                                               ; preds = %2
  %11 = load atomic i64, ptr %7 monotonic, align 8
  store i64 %11, ptr %5, align 8
  br label %16

12:                                               ; preds = %2, %2
  %13 = load atomic i64, ptr %7 acquire, align 8
  store i64 %13, ptr %5, align 8
  br label %16

14:                                               ; preds = %2
  %15 = load atomic i64, ptr %7 seq_cst, align 8
  store i64 %15, ptr %5, align 8
  br label %16

16:                                               ; preds = %14, %12, %10
  %17 = load ptr, ptr %5, align 8, !tbaa !10
  call void @llvm.lifetime.end.p0(i64 8, ptr %5) #13
  ret ptr %17
}

; Function Attrs: inlinehint nounwind uwtable
define internal ptr @arena_get(ptr noundef %0, i32 noundef %1, i1 noundef zeroext %2) #4 {
  %4 = alloca ptr, align 8
  %5 = alloca i32, align 4
  %6 = alloca i8, align 1
  %7 = alloca ptr, align 8
  store ptr %0, ptr %4, align 8, !tbaa !27
  store i32 %1, ptr %5, align 4, !tbaa !19
  %8 = zext i1 %2 to i8
  store i8 %8, ptr %6, align 1, !tbaa !15
  call void @llvm.lifetime.start.p0(i64 8, ptr %7) #13
  br label %9

9:                                                ; preds = %3
  br label %10

10:                                               ; preds = %9
  br label %11

11:                                               ; preds = %10
  %12 = load i32, ptr %5, align 4, !tbaa !19
  %13 = zext i32 %12 to i64
  %14 = getelementptr inbounds nuw [0 x %struct.atomic_p_t], ptr @duckdb_je_arenas, i64 0, i64 %13
  %15 = call ptr @atomic_load_p(ptr noundef %14, i32 noundef 1)
  store ptr %15, ptr %7, align 8, !tbaa !66
  %16 = load ptr, ptr %7, align 8, !tbaa !66
  %17 = icmp eq ptr %16, null
  %18 = xor i1 %17, true
  %19 = xor i1 %18, true
  %20 = zext i1 %19 to i32
  %21 = sext i32 %20 to i64
  %22 = call i64 @llvm.expect.i64(i64 %21, i64 0)
  %23 = icmp ne i64 %22, 0
  br i1 %23, label %24, label %32

24:                                               ; preds = %11
  %25 = load i8, ptr %6, align 1, !tbaa !15, !range !17, !noundef !18
  %26 = trunc i8 %25 to i1
  br i1 %26, label %27, label %31

27:                                               ; preds = %24
  %28 = load ptr, ptr %4, align 8, !tbaa !27
  %29 = load i32, ptr %5, align 4, !tbaa !19
  %30 = call ptr @duckdb_je_arena_init(ptr noundef %28, i32 noundef %29, ptr noundef @duckdb_je_arena_config_default)
  store ptr %30, ptr %7, align 8, !tbaa !66
  br label %31

31:                                               ; preds = %27, %24
  br label %32

32:                                               ; preds = %31, %11
  %33 = load ptr, ptr %7, align 8, !tbaa !66
  call void @llvm.lifetime.end.p0(i64 8, ptr %7) #13
  ret ptr %33
}

; Function Attrs: alwaysinline nounwind uwtable
define internal ptr @tsd_tsdn(ptr noundef %0) #2 {
  %2 = alloca ptr, align 8
  store ptr %0, ptr %2, align 8, !tbaa !3
  %3 = load ptr, ptr %2, align 8, !tbaa !3
  ret ptr %3
}

; Function Attrs: nounwind uwtable
define internal i32 @arena_i_decay_ms_ctl_impl(ptr noundef %0, ptr noundef %1, i64 noundef %2, ptr noundef %3, ptr noundef %4, ptr noundef %5, i64 noundef %6, i1 noundef zeroext %7) #0 {
  %9 = alloca i32, align 4
  %10 = alloca ptr, align 8
  %11 = alloca ptr, align 8
  %12 = alloca i64, align 8
  %13 = alloca ptr, align 8
  %14 = alloca ptr, align 8
  %15 = alloca ptr, align 8
  %16 = alloca i64, align 8
  %17 = alloca i8, align 1
  %18 = alloca i32, align 4
  %19 = alloca i32, align 4
  %20 = alloca ptr, align 8
  %21 = alloca i32, align 4
  %22 = alloca i64, align 8
  %23 = alloca i64, align 8
  %24 = alloca i32, align 4
  store ptr %0, ptr %10, align 8, !tbaa !3
  store ptr %1, ptr %11, align 8, !tbaa !11
  store i64 %2, ptr %12, align 8, !tbaa !13
  store ptr %3, ptr %13, align 8, !tbaa !10
  store ptr %4, ptr %14, align 8, !tbaa !11
  store ptr %5, ptr %15, align 8, !tbaa !10
  store i64 %6, ptr %16, align 8, !tbaa !13
  %25 = zext i1 %7 to i8
  store i8 %25, ptr %17, align 1, !tbaa !15
  call void @llvm.lifetime.start.p0(i64 4, ptr %18) #13
  call void @llvm.lifetime.start.p0(i64 4, ptr %19) #13
  call void @llvm.lifetime.start.p0(i64 8, ptr %20) #13
  br label %26

26:                                               ; preds = %8
  %27 = load ptr, ptr %11, align 8, !tbaa !11
  %28 = getelementptr inbounds i64, ptr %27, i64 1
  %29 = load i64, ptr %28, align 8, !tbaa !13
  %30 = icmp ugt i64 %29, 4294967295
  br i1 %30, label %31, label %32

31:                                               ; preds = %26
  store i32 14, ptr %18, align 4, !tbaa !19
  br label %110

32:                                               ; preds = %26
  %33 = load ptr, ptr %11, align 8, !tbaa !11
  %34 = getelementptr inbounds i64, ptr %33, i64 1
  %35 = load i64, ptr %34, align 8, !tbaa !13
  %36 = trunc i64 %35 to i32
  store i32 %36, ptr %19, align 4, !tbaa !19
  br label %37

37:                                               ; preds = %32
  br label %38

38:                                               ; preds = %37
  %39 = load ptr, ptr %10, align 8, !tbaa !3
  %40 = call ptr @tsd_tsdn(ptr noundef %39)
  %41 = load i32, ptr %19, align 4, !tbaa !19
  %42 = call ptr @arena_get(ptr noundef %40, i32 noundef %41, i1 noundef zeroext false)
  store ptr %42, ptr %20, align 8, !tbaa !66
  %43 = load ptr, ptr %20, align 8, !tbaa !66
  %44 = icmp eq ptr %43, null
  br i1 %44, label %45, label %46

45:                                               ; preds = %38
  store i32 14, ptr %18, align 4, !tbaa !19
  br label %110

46:                                               ; preds = %38
  %47 = load i8, ptr %17, align 1, !tbaa !15, !range !17, !noundef !18
  %48 = trunc i8 %47 to i1
  %49 = select i1 %48, i32 1, i32 2
  store i32 %49, ptr %21, align 4, !tbaa !19
  %50 = load ptr, ptr %13, align 8, !tbaa !10
  %51 = icmp ne ptr %50, null
  br i1 %51, label %52, label %92

52:                                               ; preds = %46
  %53 = load ptr, ptr %14, align 8, !tbaa !11
  %54 = icmp ne ptr %53, null
  br i1 %54, label %55, label %92

55:                                               ; preds = %52
  call void @llvm.lifetime.start.p0(i64 8, ptr %22) #13
  %56 = load ptr, ptr %20, align 8, !tbaa !66
  %57 = load i32, ptr %21, align 4, !tbaa !19
  %58 = call i64 @duckdb_je_arena_decay_ms_get(ptr noundef %56, i32 noundef %57)
  store i64 %58, ptr %22, align 8, !tbaa !13
  br label %59

59:                                               ; preds = %55
  %60 = load ptr, ptr %13, align 8, !tbaa !10
  %61 = icmp ne ptr %60, null
  br i1 %61, label %62, label %86

62:                                               ; preds = %59
  %63 = load ptr, ptr %14, align 8, !tbaa !11
  %64 = icmp ne ptr %63, null
  br i1 %64, label %65, label %86

65:                                               ; preds = %62
  %66 = load ptr, ptr %14, align 8, !tbaa !11
  %67 = load i64, ptr %66, align 8, !tbaa !13
  %68 = icmp ne i64 %67, 8
  br i1 %68, label %69, label %83

69:                                               ; preds = %65
  call void @llvm.lifetime.start.p0(i64 8, ptr %23) #13
  %70 = load ptr, ptr %14, align 8, !tbaa !11
  %71 = load i64, ptr %70, align 8, !tbaa !13
  %72 = icmp ule i64 8, %71
  br i1 %72, label %73, label %74

73:                                               ; preds = %69
  br label %77

74:                                               ; preds = %69
  %75 = load ptr, ptr %14, align 8, !tbaa !11
  %76 = load i64, ptr %75, align 8, !tbaa !13
  br label %77

77:                                               ; preds = %74, %73
  %78 = phi i64 [ 8, %73 ], [ %76, %74 ]
  store i64 %78, ptr %23, align 8, !tbaa !13
  %79 = load ptr, ptr %13, align 8, !tbaa !10
  %80 = load i64, ptr %23, align 8, !tbaa !13
  call void @llvm.memcpy.p0.p0.i64(ptr align 1 %79, ptr align 1 %22, i64 %80, i1 false)
  %81 = load i64, ptr %23, align 8, !tbaa !13
  %82 = load ptr, ptr %14, align 8, !tbaa !11
  store i64 %81, ptr %82, align 8, !tbaa !13
  store i32 22, ptr %18, align 4, !tbaa !19
  store i32 4, ptr %24, align 4
  call void @llvm.lifetime.end.p0(i64 8, ptr %23) #13
  br label %89

83:                                               ; preds = %65
  %84 = load i64, ptr %22, align 8, !tbaa !13
  %85 = load ptr, ptr %13, align 8, !tbaa !10
  store i64 %84, ptr %85, align 8, !tbaa !13
  br label %86

86:                                               ; preds = %83, %62, %59
  br label %87

87:                                               ; preds = %86
  br label %88

88:                                               ; preds = %87
  store i32 0, ptr %24, align 4
  br label %89

89:                                               ; preds = %88, %77
  call void @llvm.lifetime.end.p0(i64 8, ptr %22) #13
  %90 = load i32, ptr %24, align 4
  switch i32 %90, label %112 [
    i32 0, label %91
    i32 4, label %110
  ]

91:                                               ; preds = %89
  br label %92

92:                                               ; preds = %91, %52, %46
  %93 = load ptr, ptr %15, align 8, !tbaa !10
  %94 = icmp ne ptr %93, null
  br i1 %94, label %95, label %109

95:                                               ; preds = %92
  %96 = load i64, ptr %16, align 8, !tbaa !13
  %97 = icmp ne i64 %96, 8
  br i1 %97, label %98, label %99

98:                                               ; preds = %95
  store i32 22, ptr %18, align 4, !tbaa !19
  br label %110

99:                                               ; preds = %95
  %100 = load ptr, ptr %10, align 8, !tbaa !3
  %101 = call ptr @tsd_tsdn(ptr noundef %100)
  %102 = load ptr, ptr %20, align 8, !tbaa !66
  %103 = load i32, ptr %21, align 4, !tbaa !19
  %104 = load ptr, ptr %15, align 8, !tbaa !10
  %105 = load i64, ptr %104, align 8, !tbaa !13
  %106 = call zeroext i1 @duckdb_je_arena_decay_ms_set(ptr noundef %101, ptr noundef %102, i32 noundef %103, i64 noundef %105)
  br i1 %106, label %107, label %108

107:                                              ; preds = %99
  store i32 14, ptr %18, align 4, !tbaa !19
  br label %110

108:                                              ; preds = %99
  br label %109

109:                                              ; preds = %108, %92
  store i32 0, ptr %18, align 4, !tbaa !19
  br label %110

110:                                              ; preds = %109, %89, %107, %98, %45, %31
  %111 = load i32, ptr %18, align 4, !tbaa !19
  store i32 %111, ptr %9, align 4
  store i32 1, ptr %24, align 4
  br label %112

112:                                              ; preds = %110, %89
  call void @llvm.lifetime.end.p0(i64 8, ptr %20) #13
  call void @llvm.lifetime.end.p0(i64 4, ptr %19) #13
  call void @llvm.lifetime.end.p0(i64 4, ptr %18) #13
  %113 = load i32, ptr %9, align 4
  ret i32 %113
}

; Function Attrs: nounwind uwtable
define internal i32 @arena_i_muzzy_decay_ms_ctl(ptr noundef %0, ptr noundef %1, i64 noundef %2, ptr noundef %3, ptr noundef %4, ptr noundef %5, i64 noundef %6) #0 {
  %8 = alloca ptr, align 8
  %9 = alloca ptr, align 8
  %10 = alloca i64, align 8
  %11 = alloca ptr, align 8
  %12 = alloca ptr, align 8
  %13 = alloca ptr, align 8
  %14 = alloca i64, align 8
  store ptr %0, ptr %8, align 8, !tbaa !3
  store ptr %1, ptr %9, align 8, !tbaa !11
  store i64 %2, ptr %10, align 8, !tbaa !13
  store ptr %3, ptr %11, align 8, !tbaa !10
  store ptr %4, ptr %12, align 8, !tbaa !11
  store ptr %5, ptr %13, align 8, !tbaa !10
  store i64 %6, ptr %14, align 8, !tbaa !13
  %15 = load ptr, ptr %8, align 8, !tbaa !3
  %16 = load ptr, ptr %9, align 8, !tbaa !11
  %17 = load i64, ptr %10, align 8, !tbaa !13
  %18 = load ptr, ptr %11, align 8, !tbaa !10
  %19 = load ptr, ptr %12, align 8, !tbaa !11
  %20 = load ptr, ptr %13, align 8, !tbaa !10
  %21 = load i64, ptr %14, align 8, !tbaa !13
  %22 = call i32 @arena_i_decay_ms_ctl_impl(ptr noundef %15, ptr noundef %16, i64 noundef %17, ptr noundef %18, ptr noundef %19, ptr noundef %20, i64 noundef %21, i1 noundef zeroext false)
  ret i32 %22
}